ccopy_reg
_reconstructor
p0
(cargparse
Namespace
p1
c__builtin__
object
p2
Ntp3
Rp4
(dp5
S'final_decay'
p6
F0.1
sS'dueling_network'
p7
I00
sS'use_continuous'
p8
I00
sS'gpu_id'
p9
I-1
sS'render_weapon'
p10
I01
sS'height'
p11
I60
sS'use_screen_buffer'
p12
I01
sS'episode_time'
p13
NsS'players_per_game'
p14
I1
sS'update_frequency'
p15
I4
sS'frame_skip'
p16
I4
sS'action_combinations'
p17
S'move_fb;move_lr;turn_lr;attack'
p18
sS'variable_dim'
p19
(lp20
I32
aI32
asS'optimizer'
p21
S'rmsprop,lr=0.0002'
p22
sS'speed'
p23
S'off'
p24
sS'freedoom'
p25
I01
sS'visualize'
p26
I00
sS'use_depth_buffer'
p27
I00
sS'human_player'
p28
I00
sS'game_variables'
p29
(lp30
(S'health'
p31
I101
tp32
a(S'sel_ammo'
p33
I301
tp34
asS'render_crosshair'
p35
I01
sS'use_bn'
p36
I00
sS'wad'
p37
S'deathmatch_rockets'
p38
sS'dump_path'
p39
S'./dumped/default/ll2962tdmr'
p40
sS'freelook'
p41
I00
sS'map_ids_test'
p42
(lp43
I1
asS'width'
p44
I108
sS'clip_delta'
p45
F1.0
sS'reward_values'
p46
S''
p47
sS'log_frequency'
p48
I100
sS'n_rec_layers'
p49
I1
sS'n_variables'
p50
I2
sS'bucket_size'
p51
(lp52
I1
aI1
asS'crouch'
p53
g24
sS'n_bots'
p54
I8
sS'hist_size'
p55
I4
sS'evaluate'
p56
I0
sS'dropout'
p57
F0.0
sS'labels_mapping'
p58
g47
sS'n_fm'
p59
I3
sS'batch_size'
p60
I32
sS'eval_time'
p61
I900
sS'start_decay'
p62
I0
sS'game_features'
p63
S'enemy'
p64
sS'dump_freq'
p65
I0
sS'map_ids_train'
p66
(lp67
I1
asS'randomize_textures'
p68
I00
sS'eval_freq'
p69
I20000
sS'gray'
p70
I00
sS'manual_control'
p71
I00
sS'remember'
p72
I01
sS'scenario'
p73
S'deathmatch'
p74
sS'recurrence'
p75
S'lstm'
p76
sS'replay_memory_size'
p77
I1000000
sS'n_rec_updates'
p78
I5
sS'reload'
p79
g47
sS'player_rank'
p80
I0
sS'hidden_dim'
p81
I512
sS'n_features'
p82
I1
sS'render_hud'
p83
I00
sS'init_bots_health'
p84
I100
sS'network_type'
p85
S'dqn_rnn'
p86
sS'gamma'
p87
F0.99
sS'stop_decay'
p88
I1000000
sb.