ccopy_reg
_reconstructor
p0
(cargparse
Namespace
p1
c__builtin__
object
p2
Ntp3
Rp4
(dp5
S'final_decay'
p6
F0.1
sS'dueling_network'
p7
I00
sS'use_continuous'
p8
I00
sS'gpu_id'
p9
I-1
sS'render_weapon'
p10
I01
sS'height'
p11
I60
sS'use_screen_buffer'
p12
I01
sS'episode_time'
p13
NsS'players_per_game'
p14
I1
sS'update_frequency'
p15
I4
sS'frame_skip'
p16
I4
sS'action_combinations'
p17
S'move_fb+turn_lr+move_lr+attack'
p18
sS'variable_dim'
p19
(lp20
I32
aI32
asS'optimizer'
p21
S'rmsprop,lr=0.0002'
p22
sS'speed'
p23
S'off'
p24
sS'freedoom'
p25
I01
sS'visualize'
p26
I00
sS'use_depth_buffer'
p27
I00
sS'human_player'
p28
I00
sS'game_variables'
p29
(lp30
(S'health'
p31
I101
tp32
a(S'sel_ammo'
p33
I301
tp34
asS'render_crosshair'
p35
I01
sS'use_bn'
p36
I00
sS'wad'
p37
S''
p38
sS'dump_path'
p39
S'./dumped/default/94f6vi94dc'
p40
sS'freelook'
p41
I00
sS'map_ids_test'
p42
(lp43
I1
asS'width'
p44
I108
sS'clip_delta'
p45
F1.0
sS'reward_values'
p46
g38
sS'log_frequency'
p47
I100
sS'n_variables'
p48
I2
sS'bucket_size'
p49
(lp50
I1
aI1
asS'crouch'
p51
g24
sS'n_bots'
p52
I8
sS'hist_size'
p53
I4
sS'evaluate'
p54
I0
sS'dropout'
p55
F0.0
sS'labels_mapping'
p56
g38
sS'n_fm'
p57
I3
sS'batch_size'
p58
I32
sS'eval_time'
p59
I900
sS'start_decay'
p60
I0
sS'game_features'
p61
g38
sS'dump_freq'
p62
I0
sS'map_ids_train'
p63
(lp64
I1
asS'randomize_textures'
p65
I00
sS'gray'
p66
I00
sS'manual_control'
p67
I00
sS'eval_freq'
p68
I20000
sS'scenario'
p69
S'deathmatch'
p70
sS'recurrence'
p71
g38
sS'replay_memory_size'
p72
I1000000
sS'reload'
p73
g38
sS'player_rank'
p74
I0
sS'hidden_dim'
p75
I512
sS'n_features'
p76
I0
sS'render_hud'
p77
I00
sS'init_bots_health'
p78
I100
sS'network_type'
p79
S'dqn_ff'
p80
sS'gamma'
p81
F0.99
sS'stop_decay'
p82
I1000000
sb.